target datalayout = "e-m:e-p270:32:32-p271:32:32-p272:64:64-i64:64-i128:128-f80:128-n8:16:32:64-S128"
target triple = "x86_64-pc-linux-gnu"

%struct._fvalue_t = type { ptr, %union.anon.1 }
%union.anon.1 = type { %struct._protocol_value_t }
%struct._protocol_value_t = type { ptr, i32, ptr, i8 }

; Function Attrs: null_pointer_is_valid sspstrong uwtable
define internal ptr @sinteger64_to_repr(ptr noundef %0, ptr noundef %1, i32 noundef %2, i32 noundef %3) #0 {
  %5 = alloca ptr, align 8
  %6 = alloca ptr, align 8
  %7 = alloca i32, align 4
  %8 = alloca i32, align 4
  %9 = alloca i64, align 8
  %10 = alloca i64, align 8
  %11 = alloca ptr, align 8
  %12 = alloca ptr, align 8
  store ptr %0, ptr %5, align 8
  store ptr %1, ptr %6, align 8
  store i32 %2, ptr %7, align 4
  store i32 %3, ptr %8, align 4
  call void @llvm.lifetime.start.p0(i64 8, ptr %9) #10
  call void @llvm.lifetime.start.p0(i64 8, ptr %10) #10
  store i64 21, ptr %10, align 8
  call void @llvm.lifetime.start.p0(i64 8, ptr %11) #10
  %13 = load ptr, ptr %5, align 8
  %14 = load i64, ptr %10, align 8
  %15 = call noalias ptr @wmem_alloc(ptr noundef %13, i64 noundef %14) #11
  store ptr %15, ptr %11, align 8
  call void @llvm.lifetime.start.p0(i64 8, ptr %12) #10
  %16 = load ptr, ptr %11, align 8
  store ptr %16, ptr %12, align 8
  %17 = load ptr, ptr %6, align 8
  %18 = getelementptr inbounds nuw %struct._fvalue_t, ptr %17, i32 0, i32 1
  %19 = load i64, ptr %18, align 8
  %20 = icmp slt i64 %19, 0
  br i1 %20, label %21, label %28

21:                                               ; preds = %4
  %22 = load ptr, ptr %12, align 8
  %23 = getelementptr i8, ptr %22, i32 1
  store ptr %23, ptr %12, align 8
  store i8 45, ptr %22, align 1
  %24 = load ptr, ptr %6, align 8
  %25 = getelementptr inbounds nuw %struct._fvalue_t, ptr %24, i32 0, i32 1
  %26 = load i64, ptr %25, align 8
  %27 = sub i64 0, %26
  store i64 %27, ptr %9, align 8
  br label %32

28:                                               ; preds = %4
  %29 = load ptr, ptr %6, align 8
  %30 = getelementptr inbounds nuw %struct._fvalue_t, ptr %29, i32 0, i32 1
  %31 = load i64, ptr %30, align 8
  store i64 %31, ptr %9, align 8
  br label %32

32:                                               ; preds = %28, %21
  %33 = load i64, ptr %9, align 8
  %34 = load ptr, ptr %12, align 8
  %35 = load i64, ptr %10, align 8
  call void @uint64_to_str_buf(i64 noundef %33, ptr noundef %34, i64 noundef %35)
  %36 = load ptr, ptr %11, align 8
  call void @llvm.lifetime.end.p0(i64 8, ptr %12) #10
  call void @llvm.lifetime.end.p0(i64 8, ptr %11) #10
  call void @llvm.lifetime.end.p0(i64 8, ptr %10) #10
  call void @llvm.lifetime.end.p0(i64 8, ptr %9) #10
  ret ptr %36
}