; Function Attrs: null_pointer_is_valid sspstrong uwtable
define internal noundef ptr @sinteger64_to_repr(ptr noundef %0, ptr noundef readonly captures(none) %1, i32 %2, i32 %3) #0 {
  %5 = tail call noalias dereferenceable_or_null(21) ptr @wmem_alloc(ptr noundef %0, i64 noundef 21) #12
  %6 = getelementptr inbounds nuw i8, ptr %1, i64 8
  %7 = load i64, ptr %6, align 8
  %8 = icmp slt i64 %7, 0
  br i1 %8, label %9, label %12

9:                                                ; preds = %4
  %10 = getelementptr i8, ptr %5, i64 1
  store i8 45, ptr %5, align 1
  %11 = sub i64 0, %7
  br label %12

12:                                               ; preds = %4, %9
  %.010 = phi i64 [ %11, %9 ], [ %7, %4 ]
  %.0 = phi ptr [ %10, %9 ], [ %5, %4 ]
  tail call void @uint64_to_str_buf(i64 noundef %.010, ptr noundef %.0, i64 noundef 21)
  ret ptr %5
}